(dp1
S'username'
p2
(dp3
S'length'
p4
I128
sS'unique'
p5
I00
sS'sortable'
p6
I5
sS'sql'
p7
S'CHAR(128)'
p8
sS'notnull'
p9
I00
sS'type'
p10
S'string'
p11
ssS'first_name'
p12
(dp13
g4
I128
sg5
I00
sg6
I2
sg7
S'CHAR(128)'
p14
sg9
I00
sg10
g11
ssS'last_name'
p15
(dp16
g4
I128
sg5
I00
sg6
I3
sg7
S'CHAR(128)'
p17
sg9
I00
sg10
g11
ssS'registration_id'
p18
(dp19
g4
I512
sg5
I00
sg6
I9
sg7
S'CHAR(512)'
p20
sg9
I00
sg10
g11
<<<<<<< HEAD
ssS'id'
=======
ssS'email'
>>>>>>> origin/master
p21
(dp22
g4
I512
sg5
I00
sg6
<<<<<<< HEAD
I1
sg7
S'INTEGER PRIMARY KEY AUTOINCREMENT'
=======
I4
sg7
S'CHAR(512)'
>>>>>>> origin/master
p23
sg9
I00
sg10
<<<<<<< HEAD
S'id'
p24
ssS'reset_password_key'
p25
(dp26
=======
g11
ssS'reset_password_key'
p24
(dp25
>>>>>>> origin/master
g4
I512
sg5
I00
sg6
I8
sg7
S'CHAR(512)'
<<<<<<< HEAD
p27
=======
p26
>>>>>>> origin/master
sg9
I00
sg10
g11
ssS'password'
<<<<<<< HEAD
p28
(dp29
=======
p27
(dp28
>>>>>>> origin/master
g4
I512
sg5
I00
sg6
I6
sg7
S'CHAR(512)'
<<<<<<< HEAD
p30
sg9
I00
sg10
S'password'
p31
ssS'registration_key'
p32
(dp33
=======
p29
sg9
I00
sg10
g27
ssS'registration_key'
p30
(dp31
>>>>>>> origin/master
g4
I512
sg5
I00
sg6
I7
sg7
S'CHAR(512)'
<<<<<<< HEAD
p34
=======
p32
>>>>>>> origin/master
sg9
I00
sg10
g11
<<<<<<< HEAD
ssS'email'
p35
(dp36
=======
ssS'id'
p33
(dp34
>>>>>>> origin/master
g4
I512
sg5
I00
sg6
<<<<<<< HEAD
I4
sg7
S'CHAR(512)'
p37
sg9
I00
sg10
g11
=======
I1
sg7
S'INTEGER PRIMARY KEY AUTOINCREMENT'
p35
sg9
I00
sg10
g33
>>>>>>> origin/master
ss.